target datalayout = "e-m:e-p270:32:32-p271:32:32-p272:64:64-i64:64-i128:128-f80:128-n8:16:32:64-S128"
target triple = "x86_64-pc-linux-gnu"

%struct.anon = type { i32, ptr }

; Function Attrs: mustprogress nounwind uwtable
define noundef ptr @_ZN6LibRaw21HassyRawFormat_idx2HREj(ptr noundef nonnull align 8 dereferenceable(767680) %0, i32 noundef %1) #0 align 2 {
  %3 = alloca ptr, align 8
  %4 = alloca ptr, align 8
  %5 = alloca i32, align 4
  %6 = alloca i32, align 4
  %7 = alloca i32, align 4
  store ptr %0, ptr %4, align 8, !tbaa !6
  store i32 %1, ptr %5, align 4, !tbaa !11
  call void @llvm.lifetime.start.p0(i64 4, ptr %6) #8
  store i32 0, ptr %6, align 4, !tbaa !11
  br label %8

8:                                                ; preds = %27, %2
  %9 = load i32, ptr %6, align 4, !tbaa !11
  %10 = icmp slt i32 %9, 7
  br i1 %10, label %12, label %11

11:                                               ; preds = %8
  store i32 2, ptr %7, align 4
  br label %30

12:                                               ; preds = %8
  %13 = load i32, ptr %6, align 4, !tbaa !11
  %14 = sext i32 %13 to i64
  %15 = getelementptr inbounds [7 x %struct.anon], ptr @_ZL14HassyRawFormat, i64 0, i64 %14
  %16 = getelementptr inbounds nuw %struct.anon, ptr %15, i32 0, i32 0
  %17 = load i32, ptr %16, align 16, !tbaa !13
  %18 = load i32, ptr %5, align 4, !tbaa !11
  %19 = icmp eq i32 %17, %18
  br i1 %19, label %20, label %26

20:                                               ; preds = %12
  %21 = load i32, ptr %6, align 4, !tbaa !11
  %22 = sext i32 %21 to i64
  %23 = getelementptr inbounds [7 x %struct.anon], ptr @_ZL14HassyRawFormat, i64 0, i64 %22
  %24 = getelementptr inbounds nuw %struct.anon, ptr %23, i32 0, i32 1
  %25 = load ptr, ptr %24, align 8, !tbaa !16
  store ptr %25, ptr %3, align 8
  store i32 1, ptr %7, align 4
  br label %30

26:                                               ; preds = %12
  br label %27

27:                                               ; preds = %26
  %28 = load i32, ptr %6, align 4, !tbaa !11
  %29 = add nsw i32 %28, 1
  store i32 %29, ptr %6, align 4, !tbaa !11
  br label %8, !llvm.loop !17

30:                                               ; preds = %20, %11
  call void @llvm.lifetime.end.p0(i64 4, ptr %6) #8
  %31 = load i32, ptr %7, align 4
  switch i32 %31, label %35 [
    i32 2, label %32
    i32 1, label %33
  ]

32:                                               ; preds = %30
  store ptr null, ptr %3, align 8
  br label %33

33:                                               ; preds = %32, %30
  %34 = load ptr, ptr %3, align 8
  ret ptr %34

35:                                               ; preds = %30
  unreachable
}