; Function Attrs: mustprogress nofree norecurse nosync nounwind willreturn memory(none) uwtable
define noundef ptr @_ZN6LibRaw21HassyRawFormat_idx2HREj(ptr noundef nonnull readnone align 8 captures(none) dereferenceable(767680) %0, i32 noundef %1) local_unnamed_addr #0 align 2 {
  br label %4

3:                                                ; preds = %4
  %indvars.iv.next = add nuw nsw i64 %indvars.iv, 1
  %exitcond = icmp eq i64 %indvars.iv.next, 7
  br i1 %exitcond, label %.loopexit, label %4, !llvm.loop !6

4:                                                ; preds = %2, %3
  %indvars.iv = phi i64 [ 0, %2 ], [ %indvars.iv.next, %3 ]
  %5 = getelementptr inbounds nuw [7 x %struct.anon], ptr @_ZL14HassyRawFormat, i64 0, i64 %indvars.iv
  %6 = load i32, ptr %5, align 16, !tbaa !8
  %7 = icmp eq i32 %6, %1
  br i1 %7, label %8, label %3

8:                                                ; preds = %4
  %9 = getelementptr inbounds nuw i8, ptr %5, i64 8
  %10 = load ptr, ptr %9, align 8, !tbaa !15
  br label %.loopexit

.loopexit:                                        ; preds = %3, %8
  %spec.select = phi ptr [ %10, %8 ], [ null, %3 ]
  ret ptr %spec.select
}